target datalayout = "e-m:e-p270:32:32-p271:32:32-p272:64:64-i64:64-i128:128-f80:128-n8:16:32:64-S128"
target triple = "x86_64-pc-linux-gnu"

%struct.mz_zip_archive_tag = type { i64, i64, i32, i32, i32, ptr, ptr, ptr, ptr, ptr, ptr, ptr, ptr }
%struct.mz_zip_internal_state_tag = type { %struct.mz_zip_array, %struct.mz_zip_array, %struct.mz_zip_array, ptr, ptr, i64, i64 }
%struct.mz_zip_array = type { ptr, i64, i64, i32 }

; Function Attrs: mustprogress uwtable
define i32 @mz_zip_reader_end(ptr noundef %0) #5 {
  %2 = alloca ptr, align 8
  %3 = alloca ptr, align 8
  %4 = alloca ptr, align 8
  %5 = alloca ptr, align 8
  %6 = alloca ptr, align 8
  %7 = alloca ptr, align 8
  %8 = alloca i32, align 4
  %9 = alloca ptr, align 8
  %10 = alloca ptr, align 8
  store ptr %0, ptr %9, align 8
  %11 = load ptr, ptr %9, align 8
  %12 = icmp ne ptr %11, null
  br i1 %12, label %13, label %33

13:                                               ; preds = %1
  %14 = load ptr, ptr %9, align 8
  %15 = getelementptr inbounds %struct.mz_zip_archive_tag, ptr %14, i32 0, i32 12
  %16 = load ptr, ptr %15, align 8
  %17 = icmp ne ptr %16, null
  br i1 %17, label %18, label %33

18:                                               ; preds = %13
  %19 = load ptr, ptr %9, align 8
  %20 = getelementptr inbounds %struct.mz_zip_archive_tag, ptr %19, i32 0, i32 5
  %21 = load ptr, ptr %20, align 8
  %22 = icmp ne ptr %21, null
  br i1 %22, label %23, label %33

23:                                               ; preds = %18
  %24 = load ptr, ptr %9, align 8
  %25 = getelementptr inbounds %struct.mz_zip_archive_tag, ptr %24, i32 0, i32 6
  %26 = load ptr, ptr %25, align 8
  %27 = icmp ne ptr %26, null
  br i1 %27, label %28, label %33

28:                                               ; preds = %23
  %29 = load ptr, ptr %9, align 8
  %30 = getelementptr inbounds %struct.mz_zip_archive_tag, ptr %29, i32 0, i32 3
  %31 = load i32, ptr %30, align 4
  %32 = icmp ne i32 %31, 1
  br i1 %32, label %33, label %34

33:                                               ; preds = %28, %23, %18, %13, %1
  store i32 0, ptr %8, align 4
  br label %103

34:                                               ; preds = %28
  %35 = load ptr, ptr %9, align 8
  %36 = getelementptr inbounds %struct.mz_zip_archive_tag, ptr %35, i32 0, i32 12
  %37 = load ptr, ptr %36, align 8
  %38 = icmp ne ptr %37, null
  br i1 %38, label %39, label %100

39:                                               ; preds = %34
  %40 = load ptr, ptr %9, align 8
  %41 = getelementptr inbounds %struct.mz_zip_archive_tag, ptr %40, i32 0, i32 12
  %42 = load ptr, ptr %41, align 8
  store ptr %42, ptr %10, align 8
  %43 = load ptr, ptr %9, align 8
  %44 = getelementptr inbounds %struct.mz_zip_archive_tag, ptr %43, i32 0, i32 12
  store ptr null, ptr %44, align 8
  %45 = load ptr, ptr %9, align 8
  %46 = load ptr, ptr %10, align 8
  %47 = getelementptr inbounds %struct.mz_zip_internal_state_tag, ptr %46, i32 0, i32 0
  store ptr %45, ptr %2, align 8
  store ptr %47, ptr %3, align 8
  %48 = load ptr, ptr %2, align 8
  %49 = getelementptr inbounds %struct.mz_zip_archive_tag, ptr %48, i32 0, i32 6
  %50 = load ptr, ptr %49, align 8
  %51 = load ptr, ptr %2, align 8
  %52 = getelementptr inbounds %struct.mz_zip_archive_tag, ptr %51, i32 0, i32 8
  %53 = load ptr, ptr %52, align 8
  %54 = load ptr, ptr %3, align 8
  %55 = load ptr, ptr %54, align 8
  call void %50(ptr noundef %53, ptr noundef %55)
  %56 = load ptr, ptr %3, align 8
  call void @llvm.memset.p0.i64(ptr align 8 %56, i8 0, i64 32, i1 false)
  %57 = load ptr, ptr %9, align 8
  %58 = load ptr, ptr %10, align 8
  %59 = getelementptr inbounds %struct.mz_zip_internal_state_tag, ptr %58, i32 0, i32 1
  store ptr %57, ptr %4, align 8
  store ptr %59, ptr %5, align 8
  %60 = load ptr, ptr %4, align 8
  %61 = getelementptr inbounds %struct.mz_zip_archive_tag, ptr %60, i32 0, i32 6
  %62 = load ptr, ptr %61, align 8
  %63 = load ptr, ptr %4, align 8
  %64 = getelementptr inbounds %struct.mz_zip_archive_tag, ptr %63, i32 0, i32 8
  %65 = load ptr, ptr %64, align 8
  %66 = load ptr, ptr %5, align 8
  %67 = load ptr, ptr %66, align 8
  call void %62(ptr noundef %65, ptr noundef %67)
  %68 = load ptr, ptr %5, align 8
  call void @llvm.memset.p0.i64(ptr align 8 %68, i8 0, i64 32, i1 false)
  %69 = load ptr, ptr %9, align 8
  %70 = load ptr, ptr %10, align 8
  %71 = getelementptr inbounds %struct.mz_zip_internal_state_tag, ptr %70, i32 0, i32 2
  store ptr %69, ptr %6, align 8
  store ptr %71, ptr %7, align 8
  %72 = load ptr, ptr %6, align 8
  %73 = getelementptr inbounds %struct.mz_zip_archive_tag, ptr %72, i32 0, i32 6
  %74 = load ptr, ptr %73, align 8
  %75 = load ptr, ptr %6, align 8
  %76 = getelementptr inbounds %struct.mz_zip_archive_tag, ptr %75, i32 0, i32 8
  %77 = load ptr, ptr %76, align 8
  %78 = load ptr, ptr %7, align 8
  %79 = load ptr, ptr %78, align 8
  call void %74(ptr noundef %77, ptr noundef %79)
  %80 = load ptr, ptr %7, align 8
  call void @llvm.memset.p0.i64(ptr align 8 %80, i8 0, i64 32, i1 false)
  %81 = load ptr, ptr %10, align 8
  %82 = getelementptr inbounds %struct.mz_zip_internal_state_tag, ptr %81, i32 0, i32 3
  %83 = load ptr, ptr %82, align 8
  %84 = icmp ne ptr %83, null
  br i1 %84, label %85, label %92

85:                                               ; preds = %39
  %86 = load ptr, ptr %10, align 8
  %87 = getelementptr inbounds %struct.mz_zip_internal_state_tag, ptr %86, i32 0, i32 3
  %88 = load ptr, ptr %87, align 8
  %89 = call i32 @fclose(ptr noundef %88)
  %90 = load ptr, ptr %10, align 8
  %91 = getelementptr inbounds %struct.mz_zip_internal_state_tag, ptr %90, i32 0, i32 3
  store ptr null, ptr %91, align 8
  br label %92

92:                                               ; preds = %85, %39
  %93 = load ptr, ptr %9, align 8
  %94 = getelementptr inbounds %struct.mz_zip_archive_tag, ptr %93, i32 0, i32 6
  %95 = load ptr, ptr %94, align 8
  %96 = load ptr, ptr %9, align 8
  %97 = getelementptr inbounds %struct.mz_zip_archive_tag, ptr %96, i32 0, i32 8
  %98 = load ptr, ptr %97, align 8
  %99 = load ptr, ptr %10, align 8
  call void %95(ptr noundef %98, ptr noundef %99)
  br label %100

100:                                              ; preds = %92, %34
  %101 = load ptr, ptr %9, align 8
  %102 = getelementptr inbounds %struct.mz_zip_archive_tag, ptr %101, i32 0, i32 3
  store i32 0, ptr %102, align 4
  store i32 1, ptr %8, align 4
  br label %103

103:                                              ; preds = %100, %33
  %104 = load i32, ptr %8, align 4
  ret i32 %104
}

; Function Attrs: mustprogress uwtable
define internal noundef i32 @_ZL27mz_zip_reader_init_internalP18mz_zip_archive_tagj(ptr noundef %0, i32 noundef %1) #5 {
  %3 = alloca i32, align 4
  %4 = alloca ptr, align 8
  %5 = alloca i32, align 4
  store ptr %0, ptr %4, align 8
  store i32 %1, ptr %5, align 4
  %6 = load ptr, ptr %4, align 8
  %7 = icmp ne ptr %6, null
  br i1 %7, label %8, label %18

8:                                                ; preds = %2
  %9 = load ptr, ptr %4, align 8
  %10 = getelementptr inbounds %struct.mz_zip_archive_tag, ptr %9, i32 0, i32 12
  %11 = load ptr, ptr %10, align 8
  %12 = icmp ne ptr %11, null
  br i1 %12, label %18, label %13

13:                                               ; preds = %8
  %14 = load ptr, ptr %4, align 8
  %15 = getelementptr inbounds %struct.mz_zip_archive_tag, ptr %14, i32 0, i32 3
  %16 = load i32, ptr %15, align 4
  %17 = icmp ne i32 %16, 0
  br i1 %17, label %18, label %19

18:                                               ; preds = %13, %8, %2
  store i32 0, ptr %3, align 4
  br label %82

19:                                               ; preds = %13
  %20 = load ptr, ptr %4, align 8
  %21 = getelementptr inbounds %struct.mz_zip_archive_tag, ptr %20, i32 0, i32 5
  %22 = load ptr, ptr %21, align 8
  %23 = icmp ne ptr %22, null
  br i1 %23, label %27, label %24

24:                                               ; preds = %19
  %25 = load ptr, ptr %4, align 8
  %26 = getelementptr inbounds %struct.mz_zip_archive_tag, ptr %25, i32 0, i32 5
  store ptr @_ZL14def_alloc_funcPvmm, ptr %26, align 8
  br label %27

27:                                               ; preds = %24, %19
  %28 = load ptr, ptr %4, align 8
  %29 = getelementptr inbounds %struct.mz_zip_archive_tag, ptr %28, i32 0, i32 6
  %30 = load ptr, ptr %29, align 8
  %31 = icmp ne ptr %30, null
  br i1 %31, label %35, label %32

32:                                               ; preds = %27
  %33 = load ptr, ptr %4, align 8
  %34 = getelementptr inbounds %struct.mz_zip_archive_tag, ptr %33, i32 0, i32 6
  store ptr @_ZL13def_free_funcPvS_, ptr %34, align 8
  br label %35

35:                                               ; preds = %32, %27
  %36 = load ptr, ptr %4, align 8
  %37 = getelementptr inbounds %struct.mz_zip_archive_tag, ptr %36, i32 0, i32 7
  %38 = load ptr, ptr %37, align 8
  %39 = icmp ne ptr %38, null
  br i1 %39, label %43, label %40

40:                                               ; preds = %35
  %41 = load ptr, ptr %4, align 8
  %42 = getelementptr inbounds %struct.mz_zip_archive_tag, ptr %41, i32 0, i32 7
  store ptr @_ZL16def_realloc_funcPvS_mm, ptr %42, align 8
  br label %43

43:                                               ; preds = %40, %35
  %44 = load ptr, ptr %4, align 8
  %45 = getelementptr inbounds %struct.mz_zip_archive_tag, ptr %44, i32 0, i32 3
  store i32 1, ptr %45, align 4
  %46 = load ptr, ptr %4, align 8
  %47 = getelementptr inbounds %struct.mz_zip_archive_tag, ptr %46, i32 0, i32 0
  store i64 0, ptr %47, align 8
  %48 = load ptr, ptr %4, align 8
  %49 = getelementptr inbounds %struct.mz_zip_archive_tag, ptr %48, i32 0, i32 1
  store i64 0, ptr %49, align 8
  %50 = load ptr, ptr %4, align 8
  %51 = getelementptr inbounds %struct.mz_zip_archive_tag, ptr %50, i32 0, i32 2
  store i32 0, ptr %51, align 8
  %52 = load ptr, ptr %4, align 8
  %53 = getelementptr inbounds %struct.mz_zip_archive_tag, ptr %52, i32 0, i32 5
  %54 = load ptr, ptr %53, align 8
  %55 = load ptr, ptr %4, align 8
  %56 = getelementptr inbounds %struct.mz_zip_archive_tag, ptr %55, i32 0, i32 8
  %57 = load ptr, ptr %56, align 8
  %58 = call noundef ptr %54(ptr noundef %57, i64 noundef 1, i64 noundef 128)
  %59 = load ptr, ptr %4, align 8
  %60 = getelementptr inbounds %struct.mz_zip_archive_tag, ptr %59, i32 0, i32 12
  store ptr %58, ptr %60, align 8
  %61 = icmp eq ptr null, %58
  br i1 %61, label %62, label %63

62:                                               ; preds = %43
  store i32 0, ptr %3, align 4
  br label %82

63:                                               ; preds = %43
  %64 = load ptr, ptr %4, align 8
  %65 = getelementptr inbounds %struct.mz_zip_archive_tag, ptr %64, i32 0, i32 12
  %66 = load ptr, ptr %65, align 8
  call void @llvm.memset.p0.i64(ptr align 8 %66, i8 0, i64 128, i1 false)
  %67 = load ptr, ptr %4, align 8
  %68 = getelementptr inbounds %struct.mz_zip_archive_tag, ptr %67, i32 0, i32 12
  %69 = load ptr, ptr %68, align 8
  %70 = getelementptr inbounds %struct.mz_zip_internal_state_tag, ptr %69, i32 0, i32 0
  %71 = getelementptr inbounds %struct.mz_zip_array, ptr %70, i32 0, i32 3
  store i32 1, ptr %71, align 8
  %72 = load ptr, ptr %4, align 8
  %73 = getelementptr inbounds %struct.mz_zip_archive_tag, ptr %72, i32 0, i32 12
  %74 = load ptr, ptr %73, align 8
  %75 = getelementptr inbounds %struct.mz_zip_internal_state_tag, ptr %74, i32 0, i32 1
  %76 = getelementptr inbounds %struct.mz_zip_array, ptr %75, i32 0, i32 3
  store i32 4, ptr %76, align 8
  %77 = load ptr, ptr %4, align 8
  %78 = getelementptr inbounds %struct.mz_zip_archive_tag, ptr %77, i32 0, i32 12
  %79 = load ptr, ptr %78, align 8
  %80 = getelementptr inbounds %struct.mz_zip_internal_state_tag, ptr %79, i32 0, i32 2
  %81 = getelementptr inbounds %struct.mz_zip_array, ptr %80, i32 0, i32 3
  store i32 4, ptr %81, align 8
  store i32 1, ptr %3, align 4
  br label %82

82:                                               ; preds = %63, %62, %18
  %83 = load i32, ptr %3, align 4
  ret i32 %83
}

; Function Attrs: mustprogress uwtable
define i32 @mz_zip_reader_init_mem(ptr noundef %0, ptr noundef %1, i64 noundef %2, i32 noundef %3) #5 {
  %5 = alloca i32, align 4
  %6 = alloca ptr, align 8
  %7 = alloca ptr, align 8
  %8 = alloca i64, align 8
  %9 = alloca i32, align 4
  store ptr %0, ptr %6, align 8
  store ptr %1, ptr %7, align 8
  store i64 %2, ptr %8, align 8
  store i32 %3, ptr %9, align 4
  %10 = load ptr, ptr %6, align 8
  %11 = load i32, ptr %9, align 4
  %12 = call noundef i32 @_ZL27mz_zip_reader_init_internalP18mz_zip_archive_tagj(ptr noundef %10, i32 noundef %11)
  %13 = icmp ne i32 %12, 0
  br i1 %13, label %15, label %14

14:                                               ; preds = %4
  store i32 0, ptr %5, align 4
  br label %42

15:                                               ; preds = %4
  %16 = load i64, ptr %8, align 8
  %17 = load ptr, ptr %6, align 8
  %18 = getelementptr inbounds %struct.mz_zip_archive_tag, ptr %17, i32 0, i32 0
  store i64 %16, ptr %18, align 8
  %19 = load ptr, ptr %6, align 8
  %20 = getelementptr inbounds %struct.mz_zip_archive_tag, ptr %19, i32 0, i32 9
  store ptr @_ZL20mz_zip_mem_read_funcPvyS_m, ptr %20, align 8
  %21 = load ptr, ptr %6, align 8
  %22 = load ptr, ptr %6, align 8
  %23 = getelementptr inbounds %struct.mz_zip_archive_tag, ptr %22, i32 0, i32 11
  store ptr %21, ptr %23, align 8
  %24 = load ptr, ptr %7, align 8
  %25 = load ptr, ptr %6, align 8
  %26 = getelementptr inbounds %struct.mz_zip_archive_tag, ptr %25, i32 0, i32 12
  %27 = load ptr, ptr %26, align 8
  %28 = getelementptr inbounds %struct.mz_zip_internal_state_tag, ptr %27, i32 0, i32 4
  store ptr %24, ptr %28, align 8
  %29 = load i64, ptr %8, align 8
  %30 = load ptr, ptr %6, align 8
  %31 = getelementptr inbounds %struct.mz_zip_archive_tag, ptr %30, i32 0, i32 12
  %32 = load ptr, ptr %31, align 8
  %33 = getelementptr inbounds %struct.mz_zip_internal_state_tag, ptr %32, i32 0, i32 5
  store i64 %29, ptr %33, align 8
  %34 = load ptr, ptr %6, align 8
  %35 = load i32, ptr %9, align 4
  %36 = call noundef i32 @_ZL30mz_zip_reader_read_central_dirP18mz_zip_archive_tagj(ptr noundef %34, i32 noundef %35)
  %37 = icmp ne i32 %36, 0
  br i1 %37, label %41, label %38

38:                                               ; preds = %15
  %39 = load ptr, ptr %6, align 8
  %40 = call i32 @mz_zip_reader_end(ptr noundef %39)
  store i32 0, ptr %5, align 4
  br label %42

41:                                               ; preds = %15
  store i32 1, ptr %5, align 4
  br label %42

42:                                               ; preds = %41, %38, %14
  %43 = load i32, ptr %5, align 4
  ret i32 %43
}