; Function Attrs: mustprogress uwtable
define noundef i32 @mz_zip_reader_init_mem(ptr noundef %0, ptr noundef %1, i64 noundef %2, i32 noundef %3) local_unnamed_addr #9 {
  %.not.i = icmp eq ptr %0, null
  br i1 %.not.i, label %mz_zip_reader_end.exit, label %5

5:                                                ; preds = %4
  %6 = getelementptr inbounds i8, ptr %0, i64 88
  %7 = load ptr, ptr %6, align 8
  %.not22.i = icmp eq ptr %7, null
  br i1 %.not22.i, label %8, label %mz_zip_reader_end.exit

8:                                                ; preds = %5
  %9 = getelementptr inbounds i8, ptr %0, i64 20
  %10 = load i32, ptr %9, align 4
  %.not23.i = icmp eq i32 %10, 0
  br i1 %.not23.i, label %11, label %mz_zip_reader_end.exit

11:                                               ; preds = %8
  %12 = getelementptr inbounds i8, ptr %0, i64 32
  %13 = load ptr, ptr %12, align 8
  %.not24.i = icmp eq ptr %13, null
  br i1 %.not24.i, label %14, label %15

14:                                               ; preds = %11
  store ptr @_ZL14def_alloc_funcPvmm, ptr %12, align 8
  br label %15

15:                                               ; preds = %14, %11
  %16 = phi ptr [ @_ZL14def_alloc_funcPvmm, %14 ], [ %13, %11 ]
  %17 = getelementptr inbounds i8, ptr %0, i64 40
  %18 = load ptr, ptr %17, align 8
  %.not25.i = icmp eq ptr %18, null
  br i1 %.not25.i, label %19, label %20

19:                                               ; preds = %15
  store ptr @_ZL13def_free_funcPvS_, ptr %17, align 8
  br label %20

20:                                               ; preds = %19, %15
  %21 = getelementptr inbounds i8, ptr %0, i64 48
  %22 = load ptr, ptr %21, align 8
  %.not26.i = icmp eq ptr %22, null
  br i1 %.not26.i, label %23, label %24

23:                                               ; preds = %20
  store ptr @_ZL16def_realloc_funcPvS_mm, ptr %21, align 8
  br label %24

24:                                               ; preds = %23, %20
  store i32 1, ptr %9, align 4
  %25 = getelementptr inbounds i8, ptr %0, i64 56
  tail call void @llvm.memset.p0.i64(ptr noundef nonnull align 8 dereferenceable(20) %0, i8 0, i64 20, i1 false)
  %26 = load ptr, ptr %25, align 8
  %27 = tail call noundef ptr %16(ptr noundef %26, i64 noundef 1, i64 noundef 128)
  store ptr %27, ptr %6, align 8
  %28 = icmp eq ptr %27, null
  br i1 %28, label %mz_zip_reader_end.exit, label %29

29:                                               ; preds = %24
  tail call void @llvm.memset.p0.i64(ptr noundef nonnull align 8 dereferenceable(128) %27, i8 0, i64 128, i1 false)
  %30 = load ptr, ptr %6, align 8
  %31 = getelementptr inbounds i8, ptr %30, i64 24
  store i32 1, ptr %31, align 8
  %32 = load ptr, ptr %6, align 8
  %33 = getelementptr inbounds i8, ptr %32, i64 56
  store i32 4, ptr %33, align 8
  %34 = load ptr, ptr %6, align 8
  %35 = getelementptr inbounds i8, ptr %34, i64 88
  store i32 4, ptr %35, align 8
  store i64 %2, ptr %0, align 8
  %36 = getelementptr inbounds i8, ptr %0, i64 64
  store ptr @_ZL20mz_zip_mem_read_funcPvyS_m, ptr %36, align 8
  %37 = getelementptr inbounds i8, ptr %0, i64 80
  store ptr %0, ptr %37, align 8
  %38 = load ptr, ptr %6, align 8
  %39 = getelementptr inbounds i8, ptr %38, i64 104
  store ptr %1, ptr %39, align 8
  %40 = load ptr, ptr %6, align 8
  %41 = getelementptr inbounds i8, ptr %40, i64 112
  store i64 %2, ptr %41, align 8
  %42 = tail call fastcc noundef i32 @_ZL30mz_zip_reader_read_central_dirP18mz_zip_archive_tagj(ptr noundef nonnull %0, i32 noundef %3), !range !16
  %.not14 = icmp eq i32 %42, 0
  br i1 %.not14, label %43, label %mz_zip_reader_end.exit

43:                                               ; preds = %29
  %44 = load ptr, ptr %6, align 8
  %.not36.i = icmp eq ptr %44, null
  br i1 %.not36.i, label %mz_zip_reader_end.exit, label %45

45:                                               ; preds = %43
  %46 = load ptr, ptr %12, align 8
  %.not37.i = icmp eq ptr %46, null
  br i1 %.not37.i, label %mz_zip_reader_end.exit, label %47

47:                                               ; preds = %45
  %48 = load ptr, ptr %17, align 8
  %.not38.i = icmp eq ptr %48, null
  br i1 %.not38.i, label %mz_zip_reader_end.exit, label %49

49:                                               ; preds = %47
  %50 = load i32, ptr %9, align 4
  %.not39.i = icmp eq i32 %50, 1
  br i1 %.not39.i, label %51, label %mz_zip_reader_end.exit

51:                                               ; preds = %49
  store ptr null, ptr %6, align 8
  %52 = load ptr, ptr %25, align 8
  %53 = load ptr, ptr %44, align 8
  tail call void %48(ptr noundef %52, ptr noundef %53)
  tail call void @llvm.memset.p0.i64(ptr noundef nonnull align 8 dereferenceable(32) %44, i8 0, i64 32, i1 false)
  %54 = getelementptr inbounds i8, ptr %44, i64 32
  %55 = load ptr, ptr %17, align 8
  %56 = load ptr, ptr %25, align 8
  %57 = load ptr, ptr %54, align 8
  tail call void %55(ptr noundef %56, ptr noundef %57)
  tail call void @llvm.memset.p0.i64(ptr noundef nonnull align 8 dereferenceable(32) %54, i8 0, i64 32, i1 false)
  %58 = getelementptr inbounds i8, ptr %44, i64 64
  %59 = load ptr, ptr %17, align 8
  %60 = load ptr, ptr %25, align 8
  %61 = load ptr, ptr %58, align 8
  tail call void %59(ptr noundef %60, ptr noundef %61)
  tail call void @llvm.memset.p0.i64(ptr noundef nonnull align 8 dereferenceable(32) %58, i8 0, i64 32, i1 false)
  %62 = getelementptr inbounds i8, ptr %44, i64 96
  %63 = load ptr, ptr %62, align 8
  %.not40.i = icmp eq ptr %63, null
  br i1 %.not40.i, label %66, label %64

64:                                               ; preds = %51
  %65 = tail call i32 @fclose(ptr noundef nonnull %63)
  store ptr null, ptr %62, align 8
  br label %66

66:                                               ; preds = %64, %51
  %67 = load ptr, ptr %17, align 8
  %68 = load ptr, ptr %25, align 8
  tail call void %67(ptr noundef %68, ptr noundef nonnull %44)
  store i32 0, ptr %9, align 4
  br label %mz_zip_reader_end.exit

mz_zip_reader_end.exit:                           ; preds = %24, %4, %5, %8, %66, %49, %47, %45, %43, %29
  %.0 = phi i32 [ 1, %29 ], [ 0, %43 ], [ 0, %45 ], [ 0, %47 ], [ 0, %49 ], [ 0, %66 ], [ 0, %8 ], [ 0, %5 ], [ 0, %4 ], [ 0, %24 ]
  ret i32 %.0
}